; Function Attrs: nounwind uwtable
define internal void @collect_EVP_MD(ptr noundef %0, ptr noundef %1) #0 {
  %3 = tail call i32 @OPENSSL_sk_push(ptr noundef %1, ptr noundef %0) #6
  %4 = icmp sgt i32 %3, 0
  br i1 %4, label %5, label %7

5:                                                ; preds = %2
  %6 = tail call i32 @EVP_MD_up_ref(ptr noundef %0) #6
  br label %7

7:                                                ; preds = %5, %2
  ret void
}